; Function Attrs: mustprogress nounwind willreturn uwtable
define internal fastcc void @Vec_IntPushTwo(ptr noundef captures(none) %0, i32 noundef %1) unnamed_addr #18 {
  %3 = getelementptr inbounds nuw i8, ptr %0, i64 4
  %4 = load i32, ptr %3, align 4
  %5 = load i32, ptr %0, align 8
  %6 = icmp eq i32 %4, %5
  br i1 %6, label %7, label %.Vec_IntGrow.exit10_crit_edge.i

.Vec_IntGrow.exit10_crit_edge.i:                  ; preds = %2
  %.phi.trans.insert.i = getelementptr inbounds nuw i8, ptr %0, i64 8
  %.pre.i = load ptr, ptr %.phi.trans.insert.i, align 8
  br label %Vec_IntPush.exit

7:                                                ; preds = %2
  %8 = icmp slt i32 %4, 16
  br i1 %8, label %9, label %17

9:                                                ; preds = %7
  %10 = getelementptr inbounds nuw i8, ptr %0, i64 8
  %11 = load ptr, ptr %10, align 8
  %.not9.i.i = icmp eq ptr %11, null
  br i1 %.not9.i.i, label %14, label %12

12:                                               ; preds = %9
  %13 = tail call dereferenceable_or_null(64) ptr @realloc(ptr noundef nonnull %11, i64 noundef 64) #29
  br label %Vec_IntGrow.exit.i

14:                                               ; preds = %9
  %15 = tail call noalias dereferenceable_or_null(64) ptr @malloc(i64 noundef 64) #30
  br label %Vec_IntGrow.exit.i

Vec_IntGrow.exit.i:                               ; preds = %14, %12
  %16 = phi ptr [ %13, %12 ], [ %15, %14 ]
  store ptr %16, ptr %10, align 8
  store i32 16, ptr %0, align 8
  br label %Vec_IntPush.exit

17:                                               ; preds = %7
  %18 = shl nuw nsw i32 %4, 1
  %19 = getelementptr inbounds nuw i8, ptr %0, i64 8
  %20 = load ptr, ptr %19, align 8
  %.not9.i9.i = icmp eq ptr %20, null
  %21 = zext nneg i32 %18 to i64
  %22 = shl nuw nsw i64 %21, 2
  br i1 %.not9.i9.i, label %25, label %23

23:                                               ; preds = %17
  %24 = tail call ptr @realloc(ptr noundef nonnull %20, i64 noundef %22) #29
  br label %27

25:                                               ; preds = %17
  %26 = tail call noalias ptr @malloc(i64 noundef %22) #30
  br label %27

27:                                               ; preds = %25, %23
  %28 = phi ptr [ %24, %23 ], [ %26, %25 ]
  store ptr %28, ptr %19, align 8
  store i32 %18, ptr %0, align 8
  br label %Vec_IntPush.exit

Vec_IntPush.exit:                                 ; preds = %.Vec_IntGrow.exit10_crit_edge.i, %Vec_IntGrow.exit.i, %27
  %29 = phi ptr [ %.pre.i, %.Vec_IntGrow.exit10_crit_edge.i ], [ %28, %27 ], [ %16, %Vec_IntGrow.exit.i ]
  %30 = load i32, ptr %3, align 4
  %31 = add nsw i32 %30, 1
  store i32 %31, ptr %3, align 4
  %32 = sext i32 %30 to i64
  %33 = getelementptr inbounds i32, ptr %29, i64 %32
  store i32 11, ptr %33, align 4
  %34 = load i32, ptr %3, align 4
  %35 = load i32, ptr %0, align 8
  %36 = icmp eq i32 %34, %35
  br i1 %36, label %37, label %.Vec_IntGrow.exit10_crit_edge.i3

.Vec_IntGrow.exit10_crit_edge.i3:                 ; preds = %Vec_IntPush.exit
  %.phi.trans.insert.i4 = getelementptr inbounds nuw i8, ptr %0, i64 8
  %.pre.i5 = load ptr, ptr %.phi.trans.insert.i4, align 8
  br label %Vec_IntPush.exit9

37:                                               ; preds = %Vec_IntPush.exit
  %38 = icmp slt i32 %34, 16
  br i1 %38, label %39, label %47

39:                                               ; preds = %37
  %40 = getelementptr inbounds nuw i8, ptr %0, i64 8
  %41 = load ptr, ptr %40, align 8
  %.not9.i.i7 = icmp eq ptr %41, null
  br i1 %.not9.i.i7, label %44, label %42

42:                                               ; preds = %39
  %43 = tail call dereferenceable_or_null(64) ptr @realloc(ptr noundef nonnull %41, i64 noundef 64) #29
  br label %Vec_IntGrow.exit.i8

44:                                               ; preds = %39
  %45 = tail call noalias dereferenceable_or_null(64) ptr @malloc(i64 noundef 64) #30
  br label %Vec_IntGrow.exit.i8

Vec_IntGrow.exit.i8:                              ; preds = %44, %42
  %46 = phi ptr [ %43, %42 ], [ %45, %44 ]
  store ptr %46, ptr %40, align 8
  store i32 16, ptr %0, align 8
  br label %Vec_IntPush.exit9

47:                                               ; preds = %37
  %48 = shl nuw nsw i32 %34, 1
  %49 = getelementptr inbounds nuw i8, ptr %0, i64 8
  %50 = load ptr, ptr %49, align 8
  %.not9.i9.i6 = icmp eq ptr %50, null
  %51 = zext nneg i32 %48 to i64
  %52 = shl nuw nsw i64 %51, 2
  br i1 %.not9.i9.i6, label %55, label %53

53:                                               ; preds = %47
  %54 = tail call ptr @realloc(ptr noundef nonnull %50, i64 noundef %52) #29
  br label %57

55:                                               ; preds = %47
  %56 = tail call noalias ptr @malloc(i64 noundef %52) #30
  br label %57

57:                                               ; preds = %55, %53
  %58 = phi ptr [ %54, %53 ], [ %56, %55 ]
  store ptr %58, ptr %49, align 8
  store i32 %48, ptr %0, align 8
  br label %Vec_IntPush.exit9

Vec_IntPush.exit9:                                ; preds = %.Vec_IntGrow.exit10_crit_edge.i3, %Vec_IntGrow.exit.i8, %57
  %59 = phi ptr [ %.pre.i5, %.Vec_IntGrow.exit10_crit_edge.i3 ], [ %58, %57 ], [ %46, %Vec_IntGrow.exit.i8 ]
  %60 = load i32, ptr %3, align 4
  %61 = add nsw i32 %60, 1
  store i32 %61, ptr %3, align 4
  %62 = sext i32 %60 to i64
  %63 = getelementptr inbounds i32, ptr %59, i64 %62
  store i32 %1, ptr %63, align 4
  ret void
}